target datalayout = "e-m:e-p270:32:32-p271:32:32-p272:64:64-i64:64-i128:128-f80:128-n8:16:32:64-S128"
target triple = "x86_64-pc-linux-gnu"

; Function Attrs: nounwind uwtable
define internal void @ps_stereo_interpolate_c(ptr noundef %0, ptr noundef %1, ptr noundef %2, ptr noundef %3, i32 noundef %4) #1 {
  %6 = alloca ptr, align 8
  %7 = alloca ptr, align 8
  %8 = alloca ptr, align 8
  %9 = alloca ptr, align 8
  %10 = alloca i32, align 4
  %11 = alloca i32, align 4
  %12 = alloca i32, align 4
  %13 = alloca i32, align 4
  %14 = alloca i32, align 4
  %15 = alloca i32, align 4
  %16 = alloca i32, align 4
  %17 = alloca i32, align 4
  %18 = alloca i32, align 4
  %19 = alloca i32, align 4
  %20 = alloca i32, align 4
  %21 = alloca i32, align 4
  %22 = alloca i32, align 4
  %23 = alloca i32, align 4
  store ptr %0, ptr %6, align 8, !tbaa !17
  store ptr %1, ptr %7, align 8, !tbaa !17
  store ptr %2, ptr %8, align 8, !tbaa !17
  store ptr %3, ptr %9, align 8, !tbaa !17
  store i32 %4, ptr %10, align 4, !tbaa !19
  call void @llvm.lifetime.start.p0(i64 4, ptr %11) #3
  %24 = load ptr, ptr %8, align 8, !tbaa !17
  %25 = getelementptr inbounds [4 x i32], ptr %24, i64 0
  %26 = getelementptr inbounds [4 x i32], ptr %25, i64 0, i64 0
  %27 = load i32, ptr %26, align 4, !tbaa !19
  store i32 %27, ptr %11, align 4, !tbaa !19
  call void @llvm.lifetime.start.p0(i64 4, ptr %12) #3
  %28 = load ptr, ptr %8, align 8, !tbaa !17
  %29 = getelementptr inbounds [4 x i32], ptr %28, i64 0
  %30 = getelementptr inbounds [4 x i32], ptr %29, i64 0, i64 1
  %31 = load i32, ptr %30, align 4, !tbaa !19
  store i32 %31, ptr %12, align 4, !tbaa !19
  call void @llvm.lifetime.start.p0(i64 4, ptr %13) #3
  %32 = load ptr, ptr %8, align 8, !tbaa !17
  %33 = getelementptr inbounds [4 x i32], ptr %32, i64 0
  %34 = getelementptr inbounds [4 x i32], ptr %33, i64 0, i64 2
  %35 = load i32, ptr %34, align 4, !tbaa !19
  store i32 %35, ptr %13, align 4, !tbaa !19
  call void @llvm.lifetime.start.p0(i64 4, ptr %14) #3
  %36 = load ptr, ptr %8, align 8, !tbaa !17
  %37 = getelementptr inbounds [4 x i32], ptr %36, i64 0
  %38 = getelementptr inbounds [4 x i32], ptr %37, i64 0, i64 3
  %39 = load i32, ptr %38, align 4, !tbaa !19
  store i32 %39, ptr %14, align 4, !tbaa !19
  call void @llvm.lifetime.start.p0(i64 4, ptr %15) #3
  %40 = load ptr, ptr %9, align 8, !tbaa !17
  %41 = getelementptr inbounds [4 x i32], ptr %40, i64 0
  %42 = getelementptr inbounds [4 x i32], ptr %41, i64 0, i64 0
  %43 = load i32, ptr %42, align 4, !tbaa !19
  store i32 %43, ptr %15, align 4, !tbaa !19
  call void @llvm.lifetime.start.p0(i64 4, ptr %16) #3
  %44 = load ptr, ptr %9, align 8, !tbaa !17
  %45 = getelementptr inbounds [4 x i32], ptr %44, i64 0
  %46 = getelementptr inbounds [4 x i32], ptr %45, i64 0, i64 1
  %47 = load i32, ptr %46, align 4, !tbaa !19
  store i32 %47, ptr %16, align 4, !tbaa !19
  call void @llvm.lifetime.start.p0(i64 4, ptr %17) #3
  %48 = load ptr, ptr %9, align 8, !tbaa !17
  %49 = getelementptr inbounds [4 x i32], ptr %48, i64 0
  %50 = getelementptr inbounds [4 x i32], ptr %49, i64 0, i64 2
  %51 = load i32, ptr %50, align 4, !tbaa !19
  store i32 %51, ptr %17, align 4, !tbaa !19
  call void @llvm.lifetime.start.p0(i64 4, ptr %18) #3
  %52 = load ptr, ptr %9, align 8, !tbaa !17
  %53 = getelementptr inbounds [4 x i32], ptr %52, i64 0
  %54 = getelementptr inbounds [4 x i32], ptr %53, i64 0, i64 3
  %55 = load i32, ptr %54, align 4, !tbaa !19
  store i32 %55, ptr %18, align 4, !tbaa !19
  call void @llvm.lifetime.start.p0(i64 4, ptr %19) #3
  store i32 0, ptr %19, align 4, !tbaa !19
  br label %56

56:                                               ; preds = %173, %5
  %57 = load i32, ptr %19, align 4, !tbaa !19
  %58 = load i32, ptr %10, align 4, !tbaa !19
  %59 = icmp slt i32 %57, %58
  br i1 %59, label %60, label %176

60:                                               ; preds = %56
  call void @llvm.lifetime.start.p0(i64 4, ptr %20) #3
  %61 = load ptr, ptr %6, align 8, !tbaa !17
  %62 = load i32, ptr %19, align 4, !tbaa !19
  %63 = sext i32 %62 to i64
  %64 = getelementptr inbounds [2 x i32], ptr %61, i64 %63
  %65 = getelementptr inbounds [2 x i32], ptr %64, i64 0, i64 0
  %66 = load i32, ptr %65, align 4, !tbaa !19
  store i32 %66, ptr %20, align 4, !tbaa !19
  call void @llvm.lifetime.start.p0(i64 4, ptr %21) #3
  %67 = load ptr, ptr %6, align 8, !tbaa !17
  %68 = load i32, ptr %19, align 4, !tbaa !19
  %69 = sext i32 %68 to i64
  %70 = getelementptr inbounds [2 x i32], ptr %67, i64 %69
  %71 = getelementptr inbounds [2 x i32], ptr %70, i64 0, i64 1
  %72 = load i32, ptr %71, align 4, !tbaa !19
  store i32 %72, ptr %21, align 4, !tbaa !19
  call void @llvm.lifetime.start.p0(i64 4, ptr %22) #3
  %73 = load ptr, ptr %7, align 8, !tbaa !17
  %74 = load i32, ptr %19, align 4, !tbaa !19
  %75 = sext i32 %74 to i64
  %76 = getelementptr inbounds [2 x i32], ptr %73, i64 %75
  %77 = getelementptr inbounds [2 x i32], ptr %76, i64 0, i64 0
  %78 = load i32, ptr %77, align 4, !tbaa !19
  store i32 %78, ptr %22, align 4, !tbaa !19
  call void @llvm.lifetime.start.p0(i64 4, ptr %23) #3
  %79 = load ptr, ptr %7, align 8, !tbaa !17
  %80 = load i32, ptr %19, align 4, !tbaa !19
  %81 = sext i32 %80 to i64
  %82 = getelementptr inbounds [2 x i32], ptr %79, i64 %81
  %83 = getelementptr inbounds [2 x i32], ptr %82, i64 0, i64 1
  %84 = load i32, ptr %83, align 4, !tbaa !19
  store i32 %84, ptr %23, align 4, !tbaa !19
  %85 = load i32, ptr %15, align 4, !tbaa !19
  %86 = load i32, ptr %11, align 4, !tbaa !19
  %87 = add i32 %86, %85
  store i32 %87, ptr %11, align 4, !tbaa !19
  %88 = load i32, ptr %16, align 4, !tbaa !19
  %89 = load i32, ptr %12, align 4, !tbaa !19
  %90 = add i32 %89, %88
  store i32 %90, ptr %12, align 4, !tbaa !19
  %91 = load i32, ptr %17, align 4, !tbaa !19
  %92 = load i32, ptr %13, align 4, !tbaa !19
  %93 = add i32 %92, %91
  store i32 %93, ptr %13, align 4, !tbaa !19
  %94 = load i32, ptr %18, align 4, !tbaa !19
  %95 = load i32, ptr %14, align 4, !tbaa !19
  %96 = add i32 %95, %94
  store i32 %96, ptr %14, align 4, !tbaa !19
  %97 = load i32, ptr %11, align 4, !tbaa !19
  %98 = sext i32 %97 to i64
  %99 = load i32, ptr %20, align 4, !tbaa !19
  %100 = sext i32 %99 to i64
  %101 = mul nsw i64 %98, %100
  %102 = load i32, ptr %13, align 4, !tbaa !19
  %103 = sext i32 %102 to i64
  %104 = load i32, ptr %22, align 4, !tbaa !19
  %105 = sext i32 %104 to i64
  %106 = mul nsw i64 %103, %105
  %107 = add nsw i64 %101, %106
  %108 = add nsw i64 %107, 536870912
  %109 = ashr i64 %108, 30
  %110 = trunc i64 %109 to i32
  %111 = load ptr, ptr %6, align 8, !tbaa !17
  %112 = load i32, ptr %19, align 4, !tbaa !19
  %113 = sext i32 %112 to i64
  %114 = getelementptr inbounds [2 x i32], ptr %111, i64 %113
  %115 = getelementptr inbounds [2 x i32], ptr %114, i64 0, i64 0
  store i32 %110, ptr %115, align 4, !tbaa !19
  %116 = load i32, ptr %11, align 4, !tbaa !19
  %117 = sext i32 %116 to i64
  %118 = load i32, ptr %21, align 4, !tbaa !19
  %119 = sext i32 %118 to i64
  %120 = mul nsw i64 %117, %119
  %121 = load i32, ptr %13, align 4, !tbaa !19
  %122 = sext i32 %121 to i64
  %123 = load i32, ptr %23, align 4, !tbaa !19
  %124 = sext i32 %123 to i64
  %125 = mul nsw i64 %122, %124
  %126 = add nsw i64 %120, %125
  %127 = add nsw i64 %126, 536870912
  %128 = ashr i64 %127, 30
  %129 = trunc i64 %128 to i32
  %130 = load ptr, ptr %6, align 8, !tbaa !17
  %131 = load i32, ptr %19, align 4, !tbaa !19
  %132 = sext i32 %131 to i64
  %133 = getelementptr inbounds [2 x i32], ptr %130, i64 %132
  %134 = getelementptr inbounds [2 x i32], ptr %133, i64 0, i64 1
  store i32 %129, ptr %134, align 4, !tbaa !19
  %135 = load i32, ptr %12, align 4, !tbaa !19
  %136 = sext i32 %135 to i64
  %137 = load i32, ptr %20, align 4, !tbaa !19
  %138 = sext i32 %137 to i64
  %139 = mul nsw i64 %136, %138
  %140 = load i32, ptr %14, align 4, !tbaa !19
  %141 = sext i32 %140 to i64
  %142 = load i32, ptr %22, align 4, !tbaa !19
  %143 = sext i32 %142 to i64
  %144 = mul nsw i64 %141, %143
  %145 = add nsw i64 %139, %144
  %146 = add nsw i64 %145, 536870912
  %147 = ashr i64 %146, 30
  %148 = trunc i64 %147 to i32
  %149 = load ptr, ptr %7, align 8, !tbaa !17
  %150 = load i32, ptr %19, align 4, !tbaa !19
  %151 = sext i32 %150 to i64
  %152 = getelementptr inbounds [2 x i32], ptr %149, i64 %151
  %153 = getelementptr inbounds [2 x i32], ptr %152, i64 0, i64 0
  store i32 %148, ptr %153, align 4, !tbaa !19
  %154 = load i32, ptr %12, align 4, !tbaa !19
  %155 = sext i32 %154 to i64
  %156 = load i32, ptr %21, align 4, !tbaa !19
  %157 = sext i32 %156 to i64
  %158 = mul nsw i64 %155, %157
  %159 = load i32, ptr %14, align 4, !tbaa !19
  %160 = sext i32 %159 to i64
  %161 = load i32, ptr %23, align 4, !tbaa !19
  %162 = sext i32 %161 to i64
  %163 = mul nsw i64 %160, %162
  %164 = add nsw i64 %158, %163
  %165 = add nsw i64 %164, 536870912
  %166 = ashr i64 %165, 30
  %167 = trunc i64 %166 to i32
  %168 = load ptr, ptr %7, align 8, !tbaa !17
  %169 = load i32, ptr %19, align 4, !tbaa !19
  %170 = sext i32 %169 to i64
  %171 = getelementptr inbounds [2 x i32], ptr %168, i64 %170
  %172 = getelementptr inbounds [2 x i32], ptr %171, i64 0, i64 1
  store i32 %167, ptr %172, align 4, !tbaa !19
  call void @llvm.lifetime.end.p0(i64 4, ptr %23) #3
  call void @llvm.lifetime.end.p0(i64 4, ptr %22) #3
  call void @llvm.lifetime.end.p0(i64 4, ptr %21) #3
  call void @llvm.lifetime.end.p0(i64 4, ptr %20) #3
  br label %173

173:                                              ; preds = %60
  %174 = load i32, ptr %19, align 4, !tbaa !19
  %175 = add nsw i32 %174, 1
  store i32 %175, ptr %19, align 4, !tbaa !19
  br label %56, !llvm.loop !36

176:                                              ; preds = %56
  call void @llvm.lifetime.end.p0(i64 4, ptr %19) #3
  call void @llvm.lifetime.end.p0(i64 4, ptr %18) #3
  call void @llvm.lifetime.end.p0(i64 4, ptr %17) #3
  call void @llvm.lifetime.end.p0(i64 4, ptr %16) #3
  call void @llvm.lifetime.end.p0(i64 4, ptr %15) #3
  call void @llvm.lifetime.end.p0(i64 4, ptr %14) #3
  call void @llvm.lifetime.end.p0(i64 4, ptr %13) #3
  call void @llvm.lifetime.end.p0(i64 4, ptr %12) #3
  call void @llvm.lifetime.end.p0(i64 4, ptr %11) #3
  ret void
}