; Function Attrs: nofree norecurse nosync nounwind memory(argmem: readwrite) uwtable
define internal void @ps_stereo_interpolate_c(ptr noundef captures(none) %0, ptr noundef captures(none) %1, ptr noundef readonly captures(none) %2, ptr noundef readonly captures(none) %3, i32 noundef %4) #1 {
  %6 = load i32, ptr %3, align 4, !tbaa !15
  %7 = getelementptr inbounds nuw i8, ptr %3, i64 4
  %8 = load i32, ptr %7, align 4, !tbaa !15
  %9 = getelementptr inbounds nuw i8, ptr %3, i64 8
  %10 = load i32, ptr %9, align 4, !tbaa !15
  %11 = getelementptr inbounds nuw i8, ptr %3, i64 12
  %12 = load i32, ptr %11, align 4, !tbaa !15
  %13 = icmp sgt i32 %4, 0
  br i1 %13, label %.lr.ph.preheader, label %._crit_edge

.lr.ph.preheader:                                 ; preds = %5
  %14 = getelementptr inbounds nuw i8, ptr %2, i64 12
  %15 = load i32, ptr %14, align 4, !tbaa !15
  %16 = getelementptr inbounds nuw i8, ptr %2, i64 8
  %17 = load i32, ptr %16, align 4, !tbaa !15
  %18 = getelementptr inbounds nuw i8, ptr %2, i64 4
  %19 = load i32, ptr %18, align 4, !tbaa !15
  %20 = load i32, ptr %2, align 4, !tbaa !15
  %wide.trip.count = zext nneg i32 %4 to i64
  br label %.lr.ph

.lr.ph:                                           ; preds = %.lr.ph.preheader, %.lr.ph
  %indvars.iv = phi i64 [ 0, %.lr.ph.preheader ], [ %indvars.iv.next, %.lr.ph ]
  %.058 = phi i32 [ %20, %.lr.ph.preheader ], [ %29, %.lr.ph ]
  %.05057 = phi i32 [ %19, %.lr.ph.preheader ], [ %30, %.lr.ph ]
  %.05156 = phi i32 [ %17, %.lr.ph.preheader ], [ %31, %.lr.ph ]
  %.05255 = phi i32 [ %15, %.lr.ph.preheader ], [ %32, %.lr.ph ]
  %21 = getelementptr inbounds nuw [2 x i32], ptr %0, i64 %indvars.iv
  %22 = load i32, ptr %21, align 4, !tbaa !15
  %23 = getelementptr inbounds nuw i8, ptr %21, i64 4
  %24 = load i32, ptr %23, align 4, !tbaa !15
  %25 = getelementptr inbounds nuw [2 x i32], ptr %1, i64 %indvars.iv
  %26 = load i32, ptr %25, align 4, !tbaa !15
  %27 = getelementptr inbounds nuw i8, ptr %25, i64 4
  %28 = load i32, ptr %27, align 4, !tbaa !15
  %29 = add i32 %.058, %6
  %30 = add i32 %.05057, %8
  %31 = add i32 %.05156, %10
  %32 = add i32 %.05255, %12
  %33 = sext i32 %29 to i64
  %34 = sext i32 %22 to i64
  %35 = mul nsw i64 %34, %33
  %36 = sext i32 %31 to i64
  %37 = sext i32 %26 to i64
  %38 = mul nsw i64 %37, %36
  %39 = add nsw i64 %35, 536870912
  %40 = add i64 %39, %38
  %41 = lshr i64 %40, 30
  %42 = trunc i64 %41 to i32
  store i32 %42, ptr %21, align 4, !tbaa !15
  %43 = sext i32 %24 to i64
  %44 = mul nsw i64 %43, %33
  %45 = sext i32 %28 to i64
  %46 = mul nsw i64 %45, %36
  %47 = add nsw i64 %44, 536870912
  %48 = add i64 %47, %46
  %49 = lshr i64 %48, 30
  %50 = trunc i64 %49 to i32
  store i32 %50, ptr %23, align 4, !tbaa !15
  %51 = sext i32 %30 to i64
  %52 = mul nsw i64 %34, %51
  %53 = sext i32 %32 to i64
  %54 = mul nsw i64 %37, %53
  %55 = add nsw i64 %52, 536870912
  %56 = add i64 %55, %54
  %57 = lshr i64 %56, 30
  %58 = trunc i64 %57 to i32
  store i32 %58, ptr %25, align 4, !tbaa !15
  %59 = mul nsw i64 %43, %51
  %60 = mul nsw i64 %45, %53
  %61 = add nsw i64 %59, 536870912
  %62 = add i64 %61, %60
  %63 = lshr i64 %62, 30
  %64 = trunc i64 %63 to i32
  store i32 %64, ptr %27, align 4, !tbaa !15
  %indvars.iv.next = add nuw nsw i64 %indvars.iv, 1
  %exitcond.not = icmp eq i64 %indvars.iv.next, %wide.trip.count
  br i1 %exitcond.not, label %._crit_edge, label %.lr.ph, !llvm.loop !32

._crit_edge:                                      ; preds = %.lr.ph, %5
  ret void
}